; Function Attrs: mustprogress nofree norecurse nounwind willreturn memory(readwrite, inaccessiblemem: none) uwtable
define void @_ZNK9grpc_core11SliceBuffer8RefSliceEm(ptr dead_on_unwind noalias writable writeonly sret(%"class.grpc_core::Slice") align 8 captures(none) initializes((0, 32)) %0, ptr noundef nonnull readonly align 8 captures(none) dereferenceable(232) %1, i64 noundef %2) local_unnamed_addr #5 align 2 {
  %4 = getelementptr inbounds nuw i8, ptr %1, i64 8
  %5 = load ptr, ptr %4, align 8, !tbaa !31
  %6 = getelementptr inbounds nuw %struct.grpc_slice, ptr %5, i64 %2
  %7 = load ptr, ptr %6, align 8, !tbaa !18
  %8 = icmp ugt ptr %7, inttoptr (i64 1 to ptr)
  br i1 %8, label %9, label %_ZN9grpc_core9CSliceRefERK10grpc_sliceNS_13DebugLocationE.exit

9:                                                ; preds = %3
  %10 = atomicrmw add ptr %7, i64 1 monotonic, align 8
  br label %_ZN9grpc_core9CSliceRefERK10grpc_sliceNS_13DebugLocationE.exit

_ZN9grpc_core9CSliceRefERK10grpc_sliceNS_13DebugLocationE.exit: ; preds = %3, %9
  tail call void @llvm.memcpy.p0.p0.i64(ptr noundef nonnull align 8 dereferenceable(32) %0, ptr noundef nonnull align 8 dereferenceable(32) %6, i64 32, i1 false), !tbaa.struct !3
  ret void
}